target datalayout = "e-m:e-p270:32:32-p271:32:32-p272:64:64-i64:64-i128:128-f80:128-n8:16:32:64-S128"
target triple = "x86_64-pc-linux-gnu"

%struct._address = type { i32, i32, ptr, ptr }
%struct.nstime_t = type { i64, i32 }
%struct._frame_data = type { i32, i32, i32, i32, i64, ptr, ptr, ptr, i16, i16, %struct.nstime_t, %struct.nstime_t, i32, i32, i8 }
%struct._voip_calls_info = type { i32, i32, ptr, ptr, ptr, ptr, ptr, %struct._address, i32, i32, ptr, ptr, i16, ptr, %struct.nstime_t, ptr, %struct.nstime_t }

; Function Attrs: mustprogress uwtable
define void @_ZN15VoipCallsDialog25on_callTreeView_activatedERK11QModelIndex(ptr noundef nonnull align 8 dereferenceable(480) %0, ptr noundef nonnull align 8 dereferenceable(24) %1) #0 align 2 {
  %3 = alloca ptr, align 8
  %4 = alloca ptr, align 8
  %5 = alloca ptr, align 8
  store ptr %0, ptr %3, align 8
  store ptr %1, ptr %4, align 8
  %6 = load ptr, ptr %3, align 8
  %7 = load ptr, ptr %4, align 8
  %8 = call noundef ptr @_ZN18VoipCallsInfoModel15indexToCallInfoERK11QModelIndex(ptr noundef nonnull align 8 dereferenceable(24) %7)
  store ptr %8, ptr %5, align 8
  %9 = load ptr, ptr %5, align 8
  %10 = icmp ne ptr %9, null
  br i1 %10, label %12, label %11

11:                                               ; preds = %2
  br label %18

12:                                               ; preds = %2
  %13 = load ptr, ptr %5, align 8
  %14 = getelementptr inbounds %struct._voip_calls_info, ptr %13, i32 0, i32 13
  %15 = load ptr, ptr %14, align 8
  %16 = getelementptr inbounds %struct._frame_data, ptr %15, i32 0, i32 0
  %17 = load i32, ptr %16, align 8
  call void @_ZN15VoipCallsDialog10goToPacketEi(ptr noundef nonnull align 8 dereferenceable(480) %6, i32 noundef %17)
  br label %18

18:                                               ; preds = %12, %11
  ret void
}