; Function Attrs: mustprogress uwtable
define void @_ZN15VoipCallsDialog25on_callTreeView_activatedERK11QModelIndex(ptr noundef nonnull align 8 dereferenceable(480) %0, ptr noundef nonnull align 8 dereferenceable(24) %1) local_unnamed_addr #0 align 2 {
  %3 = tail call noundef ptr @_ZN18VoipCallsInfoModel15indexToCallInfoERK11QModelIndex(ptr noundef nonnull align 8 dereferenceable(24) %1)
  %.not = icmp eq ptr %3, null
  br i1 %.not, label %8, label %4

4:                                                ; preds = %2
  %5 = getelementptr inbounds i8, ptr %3, i64 104
  %6 = load ptr, ptr %5, align 8
  %7 = load i32, ptr %6, align 8
  tail call void @_ZN15VoipCallsDialog10goToPacketEi(ptr noundef nonnull align 8 dereferenceable(480) %0, i32 noundef %7)
  br label %8

8:                                                ; preds = %2, %4
  ret void
}